target datalayout = "e-m:e-p270:32:32-p271:32:32-p272:64:64-i64:64-i128:128-f80:128-n8:16:32:64-S128"
target triple = "x86_64-unknown-linux-gnu"

%"class.std::set.0" = type { %"class.std::_Rb_tree.1" }
%"class.std::_Rb_tree.1" = type { %"struct.std::_Rb_tree<QuantLib::Observer *, QuantLib::Observer *, std::_Identity<QuantLib::Observer *>, std::less<QuantLib::Observer *>>::_Rb_tree_impl" }
%"struct.std::_Rb_tree<QuantLib::Observer *, QuantLib::Observer *, std::_Identity<QuantLib::Observer *>, std::less<QuantLib::Observer *>>::_Rb_tree_impl" = type { [8 x i8], %"struct.std::_Rb_tree_header" }
%"struct.std::_Rb_tree_header" = type { %"struct.std::_Rb_tree_node_base", i64 }
%"struct.std::_Rb_tree_node_base" = type { i32, ptr, ptr, ptr }
%"class.std::set" = type { %"class.std::_Rb_tree" }
%"class.std::_Rb_tree" = type { %"struct.std::_Rb_tree<boost::shared_ptr<QuantLib::Observable>, boost::shared_ptr<QuantLib::Observable>, std::_Identity<boost::shared_ptr<QuantLib::Observable>>, std::less<boost::shared_ptr<QuantLib::Observable>>>::_Rb_tree_impl" }
%"struct.std::_Rb_tree<boost::shared_ptr<QuantLib::Observable>, boost::shared_ptr<QuantLib::Observable>, std::_Identity<boost::shared_ptr<QuantLib::Observable>>, std::less<boost::shared_ptr<QuantLib::Observable>>>::_Rb_tree_impl" = type { [8 x i8], %"struct.std::_Rb_tree_header" }
%"class.boost::detail::shared_count" = type { ptr }
%"class.QuantLib::Observable" = type { ptr, %"class.std::set.0" }
%"class.QuantLib::Observer" = type { ptr, %"class.std::set" }
%"class.QuantLib::Coupon" = type { %"class.QuantLib::CashFlow.base", %"class.QuantLib::Date", double, %"class.QuantLib::Date", %"class.QuantLib::Date", %"class.QuantLib::Date", %"class.QuantLib::Date", %"class.QuantLib::Date", double, %"class.QuantLib::Observable", %"class.QuantLib::Observer" }
%"class.QuantLib::CashFlow.base" = type <{ %"class.QuantLib::Event.base", %"class.QuantLib::LazyObject.base" }>
%"class.QuantLib::Event.base" = type { ptr }
%"class.QuantLib::LazyObject.base" = type <{ ptr, i8, i8, i8, i8 }>
%"class.QuantLib::Date" = type { i64 }
%"class.QuantLib::DayCounter" = type { %"class.boost::shared_ptr.6" }
%"class.boost::shared_ptr.6" = type { ptr, %"class.boost::detail::shared_count" }
%"class.QuantLib::FixedRateCoupon" = type { %"class.QuantLib::Coupon.base", %"class.QuantLib::InterestRate", double, %"class.QuantLib::Observable", %"class.QuantLib::Observer" }
%"class.QuantLib::Coupon.base" = type { %"class.QuantLib::CashFlow.base", %"class.QuantLib::Date", double, %"class.QuantLib::Date", %"class.QuantLib::Date", %"class.QuantLib::Date", %"class.QuantLib::Date", %"class.QuantLib::Date", double }
%"class.QuantLib::InterestRate" = type { double, %"class.QuantLib::DayCounter", i32, i8, double }

; Function Attrs: mustprogress uwtable
define void @_ZNK8QuantLib15FixedRateCoupon19performCalculationsEv(ptr noundef nonnull align 8 dereferenceable(136) %this) unnamed_addr #2 align 2 {
entry:
  %this.addr = alloca ptr, align 8
  store ptr %this, ptr %this.addr, align 8, !tbaa !3
  %this1 = load ptr, ptr %this.addr, align 8
  %vtable = load ptr, ptr %this1, align 8, !tbaa !20
  %vfn = getelementptr inbounds ptr, ptr %vtable, i64 8
  %0 = load ptr, ptr %vfn, align 8
  %call = call noundef double %0(ptr noundef nonnull align 8 dereferenceable(88) %this1)
  %rate_ = getelementptr inbounds nuw %"class.QuantLib::FixedRateCoupon", ptr %this1, i32 0, i32 1
  %accrualStartDate_ = getelementptr inbounds nuw %"class.QuantLib::Coupon", ptr %this1, i32 0, i32 3
  %accrualEndDate_ = getelementptr inbounds nuw %"class.QuantLib::Coupon", ptr %this1, i32 0, i32 4
  %refPeriodStart_ = getelementptr inbounds nuw %"class.QuantLib::Coupon", ptr %this1, i32 0, i32 5
  %refPeriodEnd_ = getelementptr inbounds nuw %"class.QuantLib::Coupon", ptr %this1, i32 0, i32 6
  %call2 = call noundef double @_ZNK8QuantLib12InterestRate14compoundFactorERKNS_4DateES3_S3_S3_(ptr noundef nonnull align 8 dereferenceable(40) %rate_, ptr noundef nonnull align 8 dereferenceable(8) %accrualStartDate_, ptr noundef nonnull align 8 dereferenceable(8) %accrualEndDate_, ptr noundef nonnull align 8 dereferenceable(8) %refPeriodStart_, ptr noundef nonnull align 8 dereferenceable(8) %refPeriodEnd_)
  %sub = fsub double %call2, 1.000000e+00
  %mul = fmul double %call, %sub
  %amount_ = getelementptr inbounds nuw %"class.QuantLib::FixedRateCoupon", ptr %this1, i32 0, i32 2
  store double %mul, ptr %amount_, align 8, !tbaa !37
  ret void
}

; Function Attrs: uwtable
define void @_ZThn8_NK8QuantLib15FixedRateCoupon19performCalculationsEv(ptr noundef %this) unnamed_addr #7 align 2 {
entry:
  %this.addr = alloca ptr, align 8
  store ptr %this, ptr %this.addr, align 8, !tbaa !3
  %this1 = load ptr, ptr %this.addr, align 8
  %0 = getelementptr inbounds i8, ptr %this1, i64 -8
  tail call void @_ZNK8QuantLib15FixedRateCoupon19performCalculationsEv(ptr noundef nonnull align 8 dereferenceable(136) %0)
  ret void
}