; Function Attrs: uwtable
define void @_ZThn8_NK8QuantLib15FixedRateCoupon19performCalculationsEv(ptr noundef %this) unnamed_addr #9 align 2 {
entry:
  %0 = getelementptr inbounds i8, ptr %this, i64 -8
  %vtable.i = load ptr, ptr %0, align 8, !tbaa !33
  %vfn.i = getelementptr inbounds i8, ptr %vtable.i, i64 64
  %1 = load ptr, ptr %vfn.i, align 8
  %call.i = tail call noundef double %1(ptr noundef nonnull align 8 dereferenceable(88) %0)
  %rate_.i = getelementptr inbounds i8, ptr %this, i64 80
  %accrualStartDate_.i = getelementptr inbounds i8, ptr %this, i64 32
  %accrualEndDate_.i = getelementptr inbounds i8, ptr %this, i64 40
  %refPeriodStart_.i = getelementptr inbounds i8, ptr %this, i64 48
  %refPeriodEnd_.i = getelementptr inbounds i8, ptr %this, i64 56
  %call2.i = tail call noundef double @_ZNK8QuantLib12InterestRate14compoundFactorERKNS_4DateES3_S3_S3_(ptr noundef nonnull align 8 dereferenceable(40) %rate_.i, ptr noundef nonnull align 8 dereferenceable(8) %accrualStartDate_.i, ptr noundef nonnull align 8 dereferenceable(8) %accrualEndDate_.i, ptr noundef nonnull align 8 dereferenceable(8) %refPeriodStart_.i, ptr noundef nonnull align 8 dereferenceable(8) %refPeriodEnd_.i)
  %sub.i = fadd double %call2.i, -1.000000e+00
  %mul.i = fmul double %call.i, %sub.i
  %amount_.i = getelementptr inbounds i8, ptr %this, i64 120
  store double %mul.i, ptr %amount_.i, align 8, !tbaa !49
  ret void
}